target datalayout = "e-m:e-p270:32:32-p271:32:32-p272:64:64-i64:64-i128:128-f80:128-n8:16:32:64-S128"
target triple = "x86_64-pc-linux-gnu"

@.str = private unnamed_addr constant [17 x i8] c"/proc/self/statm\00", align 1
@.str.1 = private unnamed_addr constant [2 x i8] c"r\00", align 1
@.str.2 = private unnamed_addr constant [8 x i8] c"%lu %lu\00", align 1

; Function Attrs: mustprogress uwtable
define noundef i64 @_ZN11OpenImageIO6v3_1_07Sysutil11memory_usedEb(i1 noundef zeroext %0) #6 {
  %2 = alloca i8, align 1
  %3 = alloca i64, align 8
  %4 = alloca ptr, align 8
  %5 = alloca i64, align 8
  %6 = alloca i64, align 8
  %7 = alloca i32, align 4
  %8 = zext i1 %0 to i8
  store i8 %8, ptr %2, align 1, !tbaa !8
  call void @llvm.lifetime.start.p0(i64 8, ptr %3) #3
  store i64 0, ptr %3, align 8, !tbaa !10
  call void @llvm.lifetime.start.p0(i64 8, ptr %4) #3
  %9 = call noalias ptr @fopen(ptr noundef @.str, ptr noundef @.str.1)
  store ptr %9, ptr %4, align 8, !tbaa !12
  %10 = load ptr, ptr %4, align 8, !tbaa !12
  %11 = icmp ne ptr %10, null
  br i1 %11, label %12, label %33

12:                                               ; preds = %1
  call void @llvm.lifetime.start.p0(i64 8, ptr %5) #3
  store i64 0, ptr %5, align 8, !tbaa !10
  call void @llvm.lifetime.start.p0(i64 8, ptr %6) #3
  store i64 0, ptr %6, align 8, !tbaa !10
  call void @llvm.lifetime.start.p0(i64 4, ptr %7) #3
  %13 = load ptr, ptr %4, align 8, !tbaa !12
  %14 = call i32 (ptr, ptr, ...) @__isoc99_fscanf(ptr noundef %13, ptr noundef @.str.2, ptr noundef %5, ptr noundef %6)
  store i32 %14, ptr %7, align 4, !tbaa !14
  %15 = load i32, ptr %7, align 4, !tbaa !14
  %16 = icmp eq i32 %15, 2
  br i1 %16, label %17, label %26

17:                                               ; preds = %12
  %18 = load i8, ptr %2, align 1, !tbaa !8, !range !16, !noundef !17
  %19 = trunc i8 %18 to i1
  br i1 %19, label %20, label %22

20:                                               ; preds = %17
  %21 = load i64, ptr %6, align 8, !tbaa !10
  br label %24

22:                                               ; preds = %17
  %23 = load i64, ptr %5, align 8, !tbaa !10
  br label %24

24:                                               ; preds = %22, %20
  %25 = phi i64 [ %21, %20 ], [ %23, %22 ]
  store i64 %25, ptr %3, align 8, !tbaa !10
  br label %26

26:                                               ; preds = %24, %12
  %27 = call i32 @getpagesize() #24
  %28 = sext i32 %27 to i64
  %29 = load i64, ptr %3, align 8, !tbaa !10
  %30 = mul i64 %29, %28
  store i64 %30, ptr %3, align 8, !tbaa !10
  %31 = load ptr, ptr %4, align 8, !tbaa !12
  %32 = call i32 @fclose(ptr noundef %31)
  call void @llvm.lifetime.end.p0(i64 4, ptr %7) #3
  call void @llvm.lifetime.end.p0(i64 8, ptr %6) #3
  call void @llvm.lifetime.end.p0(i64 8, ptr %5) #3
  br label %33

33:                                               ; preds = %26, %1
  %34 = load i64, ptr %3, align 8, !tbaa !10
  call void @llvm.lifetime.end.p0(i64 8, ptr %4) #3
  call void @llvm.lifetime.end.p0(i64 8, ptr %3) #3
  ret i64 %34
}