; Function Attrs: mustprogress uwtable
define noundef i64 @_ZN11OpenImageIO6v3_1_07Sysutil11memory_usedEb(i1 noundef zeroext %0) local_unnamed_addr #5 {
  %2 = alloca i64, align 8
  %3 = alloca i64, align 8
  %4 = tail call noalias ptr @fopen(ptr noundef nonnull @.str, ptr noundef nonnull @.str.1)
  %.not = icmp eq ptr %4, null
  br i1 %.not, label %15, label %5

5:                                                ; preds = %1
  call void @llvm.lifetime.start.p0(i64 8, ptr nonnull %2) #32
  store i64 0, ptr %2, align 8, !tbaa !3
  call void @llvm.lifetime.start.p0(i64 8, ptr nonnull %3) #32
  store i64 0, ptr %3, align 8, !tbaa !3
  %6 = call i32 (ptr, ptr, ...) @__isoc99_fscanf(ptr noundef nonnull %4, ptr noundef nonnull @.str.2, ptr noundef nonnull %2, ptr noundef nonnull %3)
  %7 = icmp eq i32 %6, 2
  %8 = load i64, ptr %3, align 8
  %9 = load i64, ptr %2, align 8
  %10 = select i1 %0, i64 %8, i64 %9
  %.1 = select i1 %7, i64 %10, i64 0
  %11 = tail call i32 @getpagesize() #34
  %12 = sext i32 %11 to i64
  %13 = mul i64 %.1, %12
  %14 = call i32 @fclose(ptr noundef nonnull %4)
  call void @llvm.lifetime.end.p0(i64 8, ptr nonnull %3) #32
  call void @llvm.lifetime.end.p0(i64 8, ptr nonnull %2) #32
  br label %15

15:                                               ; preds = %5, %1
  %.0 = phi i64 [ %13, %5 ], [ 0, %1 ]
  ret i64 %.0
}